target datalayout = "e-m:e-p270:32:32-p271:32:32-p272:64:64-i64:64-i128:128-f80:128-n8:16:32:64-S128"
target triple = "x86_64-pc-linux-gnu"

%struct.AVFilterContext = type { ptr, ptr, ptr, ptr, ptr, i32, ptr, ptr, i32, ptr, ptr, i32, i32, ptr, ptr, ptr, ptr, i32, ptr, i32, i32 }
%struct.EvalContext = type { ptr, ptr, i32, %struct.AVChannelLayout, ptr, i32, i32, i32, i64, ptr, ptr, i32, i64, i64, [6 x double], ptr }
%struct.AVChannelLayout = type { i32, i32, %union.anon.1, ptr }
%union.anon.1 = type { i64 }
%struct.AVFilterLink = type { ptr, ptr, ptr, ptr, i32, i32, i32, i32, %struct.AVRational, i32, i32, i32, %struct.AVChannelLayout, %struct.AVRational, ptr, i32, %struct.AVFilterFormatsConfig, %struct.AVFilterFormatsConfig }
%struct.AVRational = type { i32, i32 }
%struct.AVFilterFormatsConfig = type { ptr, ptr, ptr, ptr, ptr }

; Function Attrs: nounwind uwtable
define internal i32 @aeval_config_output(ptr noundef %0) #1 {
  %2 = alloca i32, align 4
  %3 = alloca ptr, align 8
  %4 = alloca ptr, align 8
  %5 = alloca ptr, align 8
  %6 = alloca ptr, align 8
  %7 = alloca i32, align 4
  %8 = alloca i32, align 4
  store ptr %0, ptr %3, align 8, !tbaa !53
  call void @llvm.lifetime.start.p0(i64 8, ptr %4) #9
  %9 = load ptr, ptr %3, align 8, !tbaa !53
  %10 = getelementptr inbounds nuw %struct.AVFilterLink, ptr %9, i32 0, i32 0
  %11 = load ptr, ptr %10, align 8, !tbaa !55
  store ptr %11, ptr %4, align 8, !tbaa !4
  call void @llvm.lifetime.start.p0(i64 8, ptr %5) #9
  %12 = load ptr, ptr %4, align 8, !tbaa !4
  %13 = getelementptr inbounds nuw %struct.AVFilterContext, ptr %12, i32 0, i32 9
  %14 = load ptr, ptr %13, align 8, !tbaa !9
  store ptr %14, ptr %5, align 8, !tbaa !22
  call void @llvm.lifetime.start.p0(i64 8, ptr %6) #9
  %15 = load ptr, ptr %4, align 8, !tbaa !4
  %16 = getelementptr inbounds nuw %struct.AVFilterContext, ptr %15, i32 0, i32 4
  %17 = load ptr, ptr %16, align 8, !tbaa !101
  %18 = getelementptr inbounds ptr, ptr %17, i64 0
  %19 = load ptr, ptr %18, align 8, !tbaa !53
  store ptr %19, ptr %6, align 8, !tbaa !53
  call void @llvm.lifetime.start.p0(i64 4, ptr %7) #9
  %20 = load ptr, ptr %5, align 8, !tbaa !22
  %21 = getelementptr inbounds nuw %struct.EvalContext, ptr %20, i32 0, i32 7
  %22 = load i32, ptr %21, align 8, !tbaa !33
  %23 = icmp ne i32 %22, 0
  br i1 %23, label %24, label %44

24:                                               ; preds = %1
  %25 = load ptr, ptr %5, align 8, !tbaa !22
  %26 = getelementptr inbounds nuw %struct.EvalContext, ptr %25, i32 0, i32 3
  %27 = load ptr, ptr %6, align 8, !tbaa !53
  %28 = getelementptr inbounds nuw %struct.AVFilterLink, ptr %27, i32 0, i32 12
  %29 = call i32 @av_channel_layout_copy(ptr noundef %26, ptr noundef %28)
  store i32 %29, ptr %7, align 4, !tbaa !24
  %30 = icmp slt i32 %29, 0
  br i1 %30, label %31, label %33

31:                                               ; preds = %24
  %32 = load i32, ptr %7, align 4, !tbaa !24
  store i32 %32, ptr %2, align 4
  store i32 1, ptr %8, align 4
  br label %93

33:                                               ; preds = %24
  %34 = load ptr, ptr %4, align 8, !tbaa !4
  %35 = load ptr, ptr %6, align 8, !tbaa !53
  %36 = getelementptr inbounds nuw %struct.AVFilterLink, ptr %35, i32 0, i32 12
  %37 = getelementptr inbounds nuw %struct.AVChannelLayout, ptr %36, i32 0, i32 1
  %38 = load i32, ptr %37, align 4, !tbaa !87
  %39 = call i32 @parse_channel_expressions(ptr noundef %34, i32 noundef %38)
  store i32 %39, ptr %7, align 4, !tbaa !24
  %40 = icmp slt i32 %39, 0
  br i1 %40, label %41, label %43

41:                                               ; preds = %33
  %42 = load i32, ptr %7, align 4, !tbaa !24
  store i32 %42, ptr %2, align 4
  store i32 1, ptr %8, align 4
  br label %93

43:                                               ; preds = %33
  br label %44

44:                                               ; preds = %43, %1
  %45 = load ptr, ptr %5, align 8, !tbaa !22
  %46 = getelementptr inbounds nuw %struct.EvalContext, ptr %45, i32 0, i32 13
  store i64 0, ptr %46, align 8, !tbaa !37
  %47 = load ptr, ptr %6, align 8, !tbaa !53
  %48 = getelementptr inbounds nuw %struct.AVFilterLink, ptr %47, i32 0, i32 12
  %49 = getelementptr inbounds nuw %struct.AVChannelLayout, ptr %48, i32 0, i32 1
  %50 = load i32, ptr %49, align 4, !tbaa !87
  %51 = sitofp i32 %50 to double
  %52 = load ptr, ptr %5, align 8, !tbaa !22
  %53 = getelementptr inbounds nuw %struct.EvalContext, ptr %52, i32 0, i32 14
  %54 = getelementptr inbounds [6 x double], ptr %53, i64 0, i64 2
  store double %51, ptr %54, align 8, !tbaa !68
  %55 = fptosi double %51 to i32
  %56 = load ptr, ptr %5, align 8, !tbaa !22
  %57 = getelementptr inbounds nuw %struct.EvalContext, ptr %56, i32 0, i32 6
  store i32 %55, ptr %57, align 4, !tbaa !95
  %58 = load ptr, ptr %3, align 8, !tbaa !53
  %59 = getelementptr inbounds nuw %struct.AVFilterLink, ptr %58, i32 0, i32 12
  %60 = getelementptr inbounds nuw %struct.AVChannelLayout, ptr %59, i32 0, i32 1
  %61 = load i32, ptr %60, align 4, !tbaa !87
  %62 = sitofp i32 %61 to double
  %63 = load ptr, ptr %5, align 8, !tbaa !22
  %64 = getelementptr inbounds nuw %struct.EvalContext, ptr %63, i32 0, i32 14
  %65 = getelementptr inbounds [6 x double], ptr %64, i64 0, i64 3
  store double %62, ptr %65, align 8, !tbaa !68
  %66 = load ptr, ptr %6, align 8, !tbaa !53
  %67 = getelementptr inbounds nuw %struct.AVFilterLink, ptr %66, i32 0, i32 11
  %68 = load i32, ptr %67, align 8, !tbaa !86
  %69 = sitofp i32 %68 to double
  %70 = load ptr, ptr %5, align 8, !tbaa !22
  %71 = getelementptr inbounds nuw %struct.EvalContext, ptr %70, i32 0, i32 14
  %72 = getelementptr inbounds [6 x double], ptr %71, i64 0, i64 5
  store double %69, ptr %72, align 8, !tbaa !68
  %73 = load ptr, ptr %5, align 8, !tbaa !22
  %74 = getelementptr inbounds nuw %struct.EvalContext, ptr %73, i32 0, i32 14
  %75 = getelementptr inbounds [6 x double], ptr %74, i64 0, i64 4
  store double 0x7FF8000000000000, ptr %75, align 8, !tbaa !68
  %76 = load ptr, ptr %5, align 8, !tbaa !22
  %77 = getelementptr inbounds nuw %struct.EvalContext, ptr %76, i32 0, i32 15
  %78 = load ptr, ptr %77, align 8, !tbaa !94
  %79 = load ptr, ptr %6, align 8, !tbaa !53
  %80 = getelementptr inbounds nuw %struct.AVFilterLink, ptr %79, i32 0, i32 12
  %81 = getelementptr inbounds nuw %struct.AVChannelLayout, ptr %80, i32 0, i32 1
  %82 = load i32, ptr %81, align 4, !tbaa !87
  %83 = sext i32 %82 to i64
  %84 = call ptr @av_realloc_f(ptr noundef %78, i64 noundef %83, i64 noundef 8)
  %85 = load ptr, ptr %5, align 8, !tbaa !22
  %86 = getelementptr inbounds nuw %struct.EvalContext, ptr %85, i32 0, i32 15
  store ptr %84, ptr %86, align 8, !tbaa !94
  %87 = load ptr, ptr %5, align 8, !tbaa !22
  %88 = getelementptr inbounds nuw %struct.EvalContext, ptr %87, i32 0, i32 15
  %89 = load ptr, ptr %88, align 8, !tbaa !94
  %90 = icmp ne ptr %89, null
  br i1 %90, label %92, label %91

91:                                               ; preds = %44
  store i32 -12, ptr %2, align 4
  store i32 1, ptr %8, align 4
  br label %93

92:                                               ; preds = %44
  store i32 0, ptr %2, align 4
  store i32 1, ptr %8, align 4
  br label %93

93:                                               ; preds = %92, %91, %41, %31
  call void @llvm.lifetime.end.p0(i64 4, ptr %7) #9
  call void @llvm.lifetime.end.p0(i64 8, ptr %6) #9
  call void @llvm.lifetime.end.p0(i64 8, ptr %5) #9
  call void @llvm.lifetime.end.p0(i64 8, ptr %4) #9
  %94 = load i32, ptr %2, align 4
  ret i32 %94
}