; Function Attrs: nounwind uwtable
define internal range(i32 -2147483648, 1) i32 @aeval_config_output(ptr noundef readonly captures(none) %0) #1 {
  %2 = load ptr, ptr %0, align 8, !tbaa !48
  %3 = getelementptr inbounds nuw i8, ptr %2, i64 72
  %4 = load ptr, ptr %3, align 8, !tbaa !4
  %5 = getelementptr inbounds nuw i8, ptr %2, i64 32
  %6 = load ptr, ptr %5, align 8, !tbaa !90
  %7 = load ptr, ptr %6, align 8, !tbaa !46
  %8 = getelementptr inbounds nuw i8, ptr %4, i64 64
  %9 = load i32, ptr %8, align 8, !tbaa !28
  %.not = icmp eq i32 %9, 0
  br i1 %.not, label %20, label %10

10:                                               ; preds = %1
  %11 = getelementptr inbounds nuw i8, ptr %4, i64 24
  %12 = getelementptr inbounds nuw i8, ptr %7, i64 72
  %13 = tail call i32 @av_channel_layout_copy(ptr noundef nonnull %11, ptr noundef nonnull %12) #11
  %14 = icmp slt i32 %13, 0
  br i1 %14, label %40, label %15

15:                                               ; preds = %10
  %16 = getelementptr inbounds nuw i8, ptr %7, i64 76
  %17 = load i32, ptr %16, align 4, !tbaa !76
  %18 = tail call fastcc i32 @parse_channel_expressions(ptr noundef nonnull %2, i32 noundef %17)
  %19 = icmp slt i32 %18, 0
  br i1 %19, label %40, label %20

20:                                               ; preds = %15, %1
  %21 = getelementptr inbounds nuw i8, ptr %4, i64 112
  store i64 0, ptr %21, align 8, !tbaa !32
  %22 = getelementptr inbounds nuw i8, ptr %7, i64 76
  %23 = load i32, ptr %22, align 4, !tbaa !76
  %24 = sitofp i32 %23 to double
  %25 = getelementptr inbounds nuw i8, ptr %4, i64 136
  store double %24, ptr %25, align 8, !tbaa !59
  %26 = getelementptr inbounds nuw i8, ptr %4, i64 60
  store i32 %23, ptr %26, align 4, !tbaa !82
  %27 = getelementptr inbounds nuw i8, ptr %0, i64 76
  %28 = load i32, ptr %27, align 4, !tbaa !76
  %29 = sitofp i32 %28 to double
  %30 = getelementptr inbounds nuw i8, ptr %4, i64 144
  store double %29, ptr %30, align 8, !tbaa !59
  %31 = getelementptr inbounds nuw i8, ptr %7, i64 64
  %32 = load i32, ptr %31, align 8, !tbaa !75
  %33 = sitofp i32 %32 to double
  %34 = getelementptr inbounds nuw i8, ptr %4, i64 160
  store double %33, ptr %34, align 8, !tbaa !59
  %35 = getelementptr inbounds nuw i8, ptr %4, i64 152
  store double 0x7FF8000000000000, ptr %35, align 8, !tbaa !59
  %36 = getelementptr inbounds nuw i8, ptr %4, i64 168
  %37 = load ptr, ptr %36, align 8, !tbaa !81
  %38 = sext i32 %23 to i64
  %39 = tail call ptr @av_realloc_f(ptr noundef %37, i64 noundef %38, i64 noundef 8) #11
  store ptr %39, ptr %36, align 8, !tbaa !81
  %.not25 = icmp eq ptr %39, null
  %. = select i1 %.not25, i32 -12, i32 0
  br label %40

40:                                               ; preds = %20, %15, %10
  %.0 = phi i32 [ %13, %10 ], [ %18, %15 ], [ %., %20 ]
  ret i32 %.0
}